; Function Attrs: cold inlinehint mustprogress uwtable
define internal fastcc void @"_ZZN12_GLOBAL__N_152ScopedMockLogTest_NoSequenceWithMultipleThreads_Test8TestBodyEvENK3$_1clEv"() unnamed_addr #23 align 2 personality ptr @__gxx_personality_v0 {
  %1 = alloca %"class.absl::log_internal::LogMessage", align 8
  call void @llvm.lifetime.start.p0(i64 16, ptr nonnull %1) #30
  call void @_ZN4absl12log_internal10LogMessageC1EPKciNS1_7InfoTagE(ptr noundef nonnull align 8 dereferenceable(16) %1, ptr noundef nonnull @.str.4, i32 noundef 255) #36
  invoke void @_ZN4absl12log_internal10LogMessage19CopyToEncodedBufferILNS1_10StringTypeE0EEEvSt17basic_string_viewIcSt11char_traitsIcEE(ptr noundef nonnull align 8 dereferenceable(16) %1, i64 8, ptr nonnull @.str.103)
          to label %_ZN4absl12log_internal10LogMessagelsILi9EEERS1_RAT__Kc.exit unwind label %2

_ZN4absl12log_internal10LogMessagelsILi9EEERS1_RAT__Kc.exit: ; preds = %0
  call void @_ZN4absl12log_internal10LogMessageD1Ev(ptr noundef nonnull align 8 dereferenceable(16) %1) #34
  call void @llvm.lifetime.end.p0(i64 16, ptr nonnull %1) #30
  ret void

2:                                                ; preds = %0
  %3 = landingpad { ptr, i32 }
          cleanup
  call void @_ZN4absl12log_internal10LogMessageD1Ev(ptr noundef nonnull align 8 dereferenceable(16) %1) #34
  call void @llvm.lifetime.end.p0(i64 16, ptr nonnull %1) #30
  resume { ptr, i32 } %3
}